target datalayout = "e-m:e-p270:32:32-p271:32:32-p272:64:64-i64:64-i128:128-f80:128-n8:16:32:64-S128"
target triple = "x86_64-pc-linux-gnu"

@.str.5 = private unnamed_addr constant [6 x i8] c"-ERR \00", align 1
@.str.6 = private unnamed_addr constant [3 x i8] c"\0D\0A\00", align 1

; Function Attrs: nounwind uwtable
define dso_local void @addReplyErrorLength(ptr noundef %0, ptr noundef %1, i64 noundef %2) #0 {
  %4 = alloca ptr, align 8
  %5 = alloca ptr, align 8
  %6 = alloca i64, align 8
  store ptr %0, ptr %4, align 8, !tbaa !24
  store ptr %1, ptr %5, align 8, !tbaa !5
  store i64 %2, ptr %6, align 8, !tbaa !20
  %7 = load i64, ptr %6, align 8, !tbaa !20
  %8 = icmp ne i64 %7, 0
  br i1 %8, label %9, label %15

9:                                                ; preds = %3
  %10 = load ptr, ptr %5, align 8, !tbaa !5
  %11 = getelementptr inbounds i8, ptr %10, i64 0
  %12 = load i8, ptr %11, align 1, !tbaa !16
  %13 = sext i8 %12 to i32
  %14 = icmp ne i32 %13, 45
  br i1 %14, label %15, label %17

15:                                               ; preds = %9, %3
  %16 = load ptr, ptr %4, align 8, !tbaa !24
  call void @addReplyProto(ptr noundef %16, ptr noundef @.str.5, i64 noundef 5)
  br label %17

17:                                               ; preds = %15, %9
  %18 = load ptr, ptr %4, align 8, !tbaa !24
  %19 = load ptr, ptr %5, align 8, !tbaa !5
  %20 = load i64, ptr %6, align 8, !tbaa !20
  call void @addReplyProto(ptr noundef %18, ptr noundef %19, i64 noundef %20)
  %21 = load ptr, ptr %4, align 8, !tbaa !24
  call void @addReplyProto(ptr noundef %21, ptr noundef @.str.6, i64 noundef 2)
  ret void
}

; Function Attrs: nounwind uwtable
define dso_local void @addReplyError(ptr noundef %0, ptr noundef %1) #0 {
  %3 = alloca ptr, align 8
  %4 = alloca ptr, align 8
  store ptr %0, ptr %3, align 8, !tbaa !24
  store ptr %1, ptr %4, align 8, !tbaa !5
  %5 = load ptr, ptr %3, align 8, !tbaa !24
  %6 = load ptr, ptr %4, align 8, !tbaa !5
  %7 = load ptr, ptr %4, align 8, !tbaa !5
  %8 = call i64 @strlen(ptr noundef %7) #20
  call void @addReplyErrorLength(ptr noundef %5, ptr noundef %6, i64 noundef %8)
  %9 = load ptr, ptr %3, align 8, !tbaa !24
  %10 = load ptr, ptr %4, align 8, !tbaa !5
  %11 = load ptr, ptr %4, align 8, !tbaa !5
  %12 = call i64 @strlen(ptr noundef %11) #20
  call void @afterErrorReply(ptr noundef %9, ptr noundef %10, i64 noundef %12, i32 noundef 0)
  ret void
}

; Function Attrs: nounwind uwtable
define dso_local i32 @clientSetNameOrReply(ptr noundef %0, ptr noundef %1) #0 {
  %3 = alloca ptr, align 8
  %4 = alloca ptr, align 8
  %5 = alloca ptr, align 8
  %6 = alloca i32, align 4
  store ptr %0, ptr %3, align 8, !tbaa !24
  store ptr %1, ptr %4, align 8, !tbaa !11
  call void @llvm.lifetime.start.p0(i64 8, ptr %5) #16
  store ptr null, ptr %5, align 8, !tbaa !5
  call void @llvm.lifetime.start.p0(i64 4, ptr %6) #16
  %7 = load ptr, ptr %3, align 8, !tbaa !24
  %8 = load ptr, ptr %4, align 8, !tbaa !11
  %9 = call i32 @clientSetName(ptr noundef %7, ptr noundef %8, ptr noundef %5)
  store i32 %9, ptr %6, align 4, !tbaa !19
  %10 = load i32, ptr %6, align 4, !tbaa !19
  %11 = icmp eq i32 %10, -1
  br i1 %11, label %12, label %15

12:                                               ; preds = %2
  %13 = load ptr, ptr %3, align 8, !tbaa !24
  %14 = load ptr, ptr %5, align 8, !tbaa !5
  call void @addReplyError(ptr noundef %13, ptr noundef %14)
  br label %15

15:                                               ; preds = %12, %2
  %16 = load i32, ptr %6, align 4, !tbaa !19
  call void @llvm.lifetime.end.p0(i64 4, ptr %6) #16
  call void @llvm.lifetime.end.p0(i64 8, ptr %5) #16
  ret i32 %16
}