; Function Attrs: nounwind uwtable
define dso_local range(i32 -1, 1) i32 @clientSetNameOrReply(ptr noundef %0, ptr noundef %1) local_unnamed_addr #0 {
  %3 = alloca ptr, align 8
  call void @llvm.lifetime.start.p0(i64 8, ptr nonnull %3) #26
  store ptr null, ptr %3, align 8, !tbaa !107
  %4 = call i32 @clientSetName(ptr noundef %0, ptr noundef %1, ptr noundef nonnull %3)
  %5 = icmp eq i32 %4, -1
  br i1 %5, label %6, label %12

6:                                                ; preds = %2
  %7 = load ptr, ptr %3, align 8, !tbaa !107
  %8 = call i64 @strlen(ptr noundef nonnull dereferenceable(1) %7) #30
  %.not.i.i = icmp eq i64 %8, 0
  br i1 %.not.i.i, label %.split7.i.i, label %9

9:                                                ; preds = %6
  %10 = load i8, ptr %7, align 1, !tbaa !12
  %.not8.i.i = icmp eq i8 %10, 45
  br i1 %.not8.i.i, label %addReplyError.exit, label %.split7.i.i

.split7.i.i:                                      ; preds = %9, %6
  call void @addReplyProto(ptr noundef %0, ptr noundef nonnull @.str.5, i64 noundef 5)
  br label %addReplyError.exit

addReplyError.exit:                               ; preds = %9, %.split7.i.i
  call void @addReplyProto(ptr noundef %0, ptr noundef nonnull readonly %7, i64 noundef %8)
  call void @addReplyProto(ptr noundef %0, ptr noundef nonnull @.str.6, i64 noundef 2)
  %11 = call i64 @strlen(ptr noundef nonnull dereferenceable(1) %7) #30
  call void @afterErrorReply(ptr noundef %0, ptr noundef nonnull %7, i64 noundef %11, i32 noundef 0)
  br label %12

12:                                               ; preds = %addReplyError.exit, %2
  call void @llvm.lifetime.end.p0(i64 8, ptr nonnull %3) #26
  ret i32 %4
}